; Function Attrs: mustprogress nofree norecurse nosync nounwind willreturn memory(argmem: readwrite) uwtable
define internal ptr @lxb_html_tokenizer_state_comment_less_than_sign_bang_dash(ptr nocapture noundef writeonly %0, ptr noundef readonly %1, ptr nocapture readnone %2) #4 {
  %4 = load i8, ptr %1, align 1
  %5 = icmp eq i8 %4, 45
  %spec.select = select i1 %5, ptr @lxb_html_tokenizer_state_comment_less_than_sign_bang_dash_dash, ptr @lxb_html_tokenizer_state_comment_end_dash
  %spec.select6.idx = zext i1 %5 to i64
  %spec.select6 = getelementptr inbounds i8, ptr %1, i64 %spec.select6.idx
  store ptr %spec.select, ptr %0, align 8
  ret ptr %spec.select6
}